; Function Attrs: mustprogress nofree norecurse nosync nounwind memory(readwrite, inaccessiblemem: none) uwtable
define void @_ZN7rocksdb9lru_cache13LRUCacheShard16MaintainPoolSizeEv(ptr nocapture noundef nonnull align 64 dereferenceable(256) %this) local_unnamed_addr #10 align 2 {
entry:
  %high_pri_pool_usage_ = getelementptr inbounds i8, ptr %this, i64 16
  %high_pri_pool_capacity_ = getelementptr inbounds i8, ptr %this, i64 48
  %0 = load i64, ptr %high_pri_pool_usage_, align 16
  %conv4 = uitofp i64 %0 to double
  %1 = load double, ptr %high_pri_pool_capacity_, align 16
  %cmp5 = fcmp olt double %1, %conv4
  br i1 %cmp5, label %while.body.lr.ph, label %entry.while.cond9.preheader_crit_edge

entry.while.cond9.preheader_crit_edge:            ; preds = %entry
  %low_pri_pool_usage_10.phi.trans.insert = getelementptr inbounds i8, ptr %this, i64 24
  %.pre8 = load i64, ptr %low_pri_pool_usage_10.phi.trans.insert, align 8
  br label %while.cond9.preheader

while.body.lr.ph:                                 ; preds = %entry
  %lru_low_pri_ = getelementptr inbounds i8, ptr %this, i64 144
  %low_pri_pool_usage_ = getelementptr inbounds i8, ptr %this, i64 24
  %.pre = load ptr, ptr %lru_low_pri_, align 16
  br label %while.body

while.cond9.preheader:                            ; preds = %while.body, %entry.while.cond9.preheader_crit_edge
  %2 = phi i64 [ %.pre8, %entry.while.cond9.preheader_crit_edge ], [ %add, %while.body ]
  %low_pri_pool_usage_10 = getelementptr inbounds i8, ptr %this, i64 24
  %low_pri_pool_capacity_ = getelementptr inbounds i8, ptr %this, i64 64
  %conv116 = uitofp i64 %2 to double
  %3 = load double, ptr %low_pri_pool_capacity_, align 64
  %cmp127 = fcmp olt double %3, %conv116
  br i1 %cmp127, label %while.body13.lr.ph, label %while.end22

while.body13.lr.ph:                               ; preds = %while.cond9.preheader
  %lru_bottom_pri_ = getelementptr inbounds i8, ptr %this, i64 152
  %.pre9 = load ptr, ptr %lru_bottom_pri_, align 8
  br label %while.body13

while.body:                                       ; preds = %while.body.lr.ph, %while.body
  %4 = phi ptr [ %.pre, %while.body.lr.ph ], [ %10, %while.body ]
  %next = getelementptr inbounds i8, ptr %4, i64 24
  %5 = load ptr, ptr %next, align 8
  store ptr %5, ptr %lru_low_pri_, align 16
  %m_flags.i = getelementptr inbounds i8, ptr %5, i64 64
  %6 = load i8, ptr %m_flags.i, align 8
  %7 = and i8 %6, -5
  store i8 %7, ptr %m_flags.i, align 8
  %8 = load ptr, ptr %lru_low_pri_, align 16
  %m_flags.i1 = getelementptr inbounds i8, ptr %8, i64 64
  %9 = load i8, ptr %m_flags.i1, align 8
  %.sink.i = or i8 %9, 8
  store i8 %.sink.i, ptr %m_flags.i1, align 8
  %10 = load ptr, ptr %lru_low_pri_, align 16
  %total_charge = getelementptr inbounds i8, ptr %10, i64 40
  %11 = load i64, ptr %total_charge, align 8
  %12 = load i64, ptr %high_pri_pool_usage_, align 16
  %sub = sub i64 %12, %11
  store i64 %sub, ptr %high_pri_pool_usage_, align 16
  %13 = load i64, ptr %total_charge, align 8
  %14 = load i64, ptr %low_pri_pool_usage_, align 8
  %add = add i64 %14, %13
  store i64 %add, ptr %low_pri_pool_usage_, align 8
  %conv = uitofp i64 %sub to double
  %15 = load double, ptr %high_pri_pool_capacity_, align 16
  %cmp = fcmp olt double %15, %conv
  br i1 %cmp, label %while.body, label %while.cond9.preheader, !llvm.loop !19

while.body13:                                     ; preds = %while.body13.lr.ph, %while.body13
  %16 = phi ptr [ %.pre9, %while.body13.lr.ph ], [ %23, %while.body13 ]
  %next14 = getelementptr inbounds i8, ptr %16, i64 24
  %17 = load ptr, ptr %next14, align 8
  store ptr %17, ptr %lru_bottom_pri_, align 8
  %m_flags.i2 = getelementptr inbounds i8, ptr %17, i64 64
  %18 = load i8, ptr %m_flags.i2, align 8
  %19 = and i8 %18, -5
  store i8 %19, ptr %m_flags.i2, align 8
  %20 = load ptr, ptr %lru_bottom_pri_, align 8
  %m_flags.i3 = getelementptr inbounds i8, ptr %20, i64 64
  %21 = load i8, ptr %m_flags.i3, align 8
  %22 = and i8 %21, -9
  store i8 %22, ptr %m_flags.i3, align 8
  %23 = load ptr, ptr %lru_bottom_pri_, align 8
  %total_charge19 = getelementptr inbounds i8, ptr %23, i64 40
  %24 = load i64, ptr %total_charge19, align 8
  %25 = load i64, ptr %low_pri_pool_usage_10, align 8
  %sub21 = sub i64 %25, %24
  store i64 %sub21, ptr %low_pri_pool_usage_10, align 8
  %conv11 = uitofp i64 %sub21 to double
  %26 = load double, ptr %low_pri_pool_capacity_, align 64
  %cmp12 = fcmp olt double %26, %conv11
  br i1 %cmp12, label %while.body13, label %while.end22, !llvm.loop !20

while.end22:                                      ; preds = %while.body13, %while.cond9.preheader
  ret void
}